target datalayout = "e-m:e-p270:32:32-p271:32:32-p272:64:64-i64:64-i128:128-f80:128-n8:16:32:64-S128"
target triple = "x86_64-pc-linux-gnu"

%struct.moveGroupType = type { i32, [7 x i32], [7 x i32], [7 x i32], [7 x i32] }
%class.Scheduler = type { [200 x %"struct.Scheduler::handType"], [200 x %"struct.Scheduler::groupType"], i32, i32, %"struct.std::atomic", [6 x [200 x %"struct.Scheduler::listType"]], [200 x %"struct.Scheduler::sortType"], i32, %"class.std::vector", %"class.std::vector", %"class.std::vector", i32, i32, %"class.std::vector", %"class.std::vector.0", %class.Timer }
%"struct.Scheduler::handType" = type { i32, i32, [4 x [4 x i32]], i32, i32, i32, i32, i32, i32, i32, i32, i32, i32 }
%"struct.Scheduler::groupType" = type { i32, i32, i32, i32, i32, i32 }
%"struct.std::atomic" = type { %"struct.std::__atomic_base" }
%"struct.std::__atomic_base" = type { i32 }
%"struct.Scheduler::listType" = type { i32, i32, i32 }
%"struct.Scheduler::sortType" = type { i32, i32 }
%"class.std::vector" = type { %"struct.std::_Vector_base" }
%"struct.std::_Vector_base" = type { %"struct.std::_Vector_base<int, std::allocator<int>>::_Vector_impl" }
%"struct.std::_Vector_base<int, std::allocator<int>>::_Vector_impl" = type { %"struct.std::_Vector_base<int, std::allocator<int>>::_Vector_impl_data" }
%"struct.std::_Vector_base<int, std::allocator<int>>::_Vector_impl_data" = type { ptr, ptr, ptr }
%"class.std::vector.0" = type { %"struct.std::_Vector_base.1" }
%"struct.std::_Vector_base.1" = type { %"struct.std::_Vector_base<Timer, std::allocator<Timer>>::_Vector_impl" }
%"struct.std::_Vector_base<Timer, std::allocator<Timer>>::_Vector_impl" = type { %"struct.std::_Vector_base<Timer, std::allocator<Timer>>::_Vector_impl_data" }
%"struct.std::_Vector_base<Timer, std::allocator<Timer>>::_Vector_impl_data" = type { ptr, ptr, ptr }
%class.Timer = type { %"class.std::__cxx11::basic_string", i32, i64, i64, %"class.std::chrono::time_point", i64 }
%"class.std::__cxx11::basic_string" = type { %"struct.std::__cxx11::basic_string<char>::_Alloc_hider", i64, %union.anon }
%"struct.std::__cxx11::basic_string<char>::_Alloc_hider" = type { ptr }
%union.anon = type { i64, [8 x i8] }
%"class.std::chrono::time_point" = type { %"class.std::chrono::duration" }
%"class.std::chrono::duration" = type { i64 }
%struct.boards = type { i32, [200 x %struct.deal], [200 x i32], [200 x i32], [200 x i32] }
%struct.deal = type { i32, i32, [3 x i32], [3 x i32], [4 x [4 x i32]] }

@groupData = external global [8192 x %struct.moveGroupType], align 16

; Function Attrs: mustprogress nounwind uwtable
define noundef i32 @_ZNK9Scheduler6FanoutERK4deal(ptr noundef nonnull align 8 dereferenceable(43416) %0, ptr noundef nonnull align 4 dereferenceable(96) %1) #5 align 2 {
  %3 = alloca ptr, align 8
  %4 = alloca ptr, align 8
  %5 = alloca i32, align 4
  %6 = alloca i32, align 4
  %7 = alloca i32, align 4
  %8 = alloca i32, align 4
  %9 = alloca i32, align 4
  %10 = alloca i32, align 4
  store ptr %0, ptr %3, align 8
  store ptr %1, ptr %4, align 8
  store i32 0, ptr %5, align 4
  store i32 0, ptr %9, align 4
  br label %11

11:                                               ; preds = %55, %2
  %12 = load i32, ptr %9, align 4
  %13 = icmp slt i32 %12, 4
  br i1 %13, label %14, label %58

14:                                               ; preds = %11
  store i32 0, ptr %6, align 4
  store i32 0, ptr %7, align 4
  store i32 0, ptr %10, align 4
  br label %15

15:                                               ; preds = %43, %14
  %16 = load i32, ptr %10, align 4
  %17 = icmp slt i32 %16, 4
  br i1 %17, label %18, label %46

18:                                               ; preds = %15
  %19 = load ptr, ptr %4, align 8
  %20 = getelementptr inbounds nuw %struct.deal, ptr %19, i32 0, i32 4
  %21 = load i32, ptr %9, align 4
  %22 = sext i32 %21 to i64
  %23 = getelementptr inbounds [4 x [4 x i32]], ptr %20, i64 0, i64 %22
  %24 = load i32, ptr %10, align 4
  %25 = sext i32 %24 to i64
  %26 = getelementptr inbounds [4 x i32], ptr %23, i64 0, i64 %25
  %27 = load i32, ptr %26, align 4
  %28 = lshr i32 %27, 2
  store i32 %28, ptr %8, align 4
  %29 = load i32, ptr %8, align 4
  %30 = sext i32 %29 to i64
  %31 = getelementptr inbounds [8192 x %struct.moveGroupType], ptr @groupData, i64 0, i64 %30
  %32 = getelementptr inbounds nuw %struct.moveGroupType, ptr %31, i32 0, i32 0
  %33 = load i32, ptr %32, align 4
  %34 = add nsw i32 %33, 1
  %35 = load i32, ptr %6, align 4
  %36 = add nsw i32 %35, %34
  store i32 %36, ptr %6, align 4
  %37 = load i32, ptr %8, align 4
  %38 = icmp eq i32 %37, 0
  br i1 %38, label %39, label %42

39:                                               ; preds = %18
  %40 = load i32, ptr %7, align 4
  %41 = add nsw i32 %40, 1
  store i32 %41, ptr %7, align 4
  br label %42

42:                                               ; preds = %39, %18
  br label %43

43:                                               ; preds = %42
  %44 = load i32, ptr %10, align 4
  %45 = add nsw i32 %44, 1
  store i32 %45, ptr %10, align 4
  br label %15, !llvm.loop !34

46:                                               ; preds = %15
  %47 = load i32, ptr %7, align 4
  %48 = load i32, ptr %6, align 4
  %49 = mul nsw i32 %47, %48
  %50 = load i32, ptr %6, align 4
  %51 = add nsw i32 %50, %49
  store i32 %51, ptr %6, align 4
  %52 = load i32, ptr %6, align 4
  %53 = load i32, ptr %5, align 4
  %54 = add nsw i32 %53, %52
  store i32 %54, ptr %5, align 4
  br label %55

55:                                               ; preds = %46
  %56 = load i32, ptr %9, align 4
  %57 = add nsw i32 %56, 1
  store i32 %57, ptr %9, align 4
  br label %11, !llvm.loop !35

58:                                               ; preds = %11
  %59 = load i32, ptr %5, align 4
  ret i32 %59
}

; Function Attrs: mustprogress uwtable
define void @_ZN9Scheduler10MakeGroupsERK6boards(ptr noundef nonnull align 8 dereferenceable(43416) %0, ptr noundef nonnull align 4 dereferenceable(21604) %1) #4 align 2 {
  %3 = alloca ptr, align 8
  %4 = alloca ptr, align 8
  %5 = alloca ptr, align 8
  %6 = alloca ptr, align 8
  %7 = alloca i32, align 4
  %8 = alloca i32, align 4
  %9 = alloca i32, align 4
  %10 = alloca i32, align 4
  %11 = alloca i32, align 4
  %12 = alloca i32, align 4
  %13 = alloca i32, align 4
  store ptr %0, ptr %3, align 8
  store ptr %1, ptr %4, align 8
  %14 = load ptr, ptr %3, align 8
  store i32 0, ptr %7, align 4
  br label %15

15:                                               ; preds = %210, %2
  %16 = load i32, ptr %7, align 4
  %17 = getelementptr inbounds nuw %class.Scheduler, ptr %14, i32 0, i32 12
  %18 = load i32, ptr %17, align 4
  %19 = icmp slt i32 %16, %18
  br i1 %19, label %20, label %213

20:                                               ; preds = %15
  %21 = load ptr, ptr %4, align 8
  %22 = getelementptr inbounds nuw %struct.boards, ptr %21, i32 0, i32 1
  %23 = load i32, ptr %7, align 4
  %24 = sext i32 %23 to i64
  %25 = getelementptr inbounds [200 x %struct.deal], ptr %22, i64 0, i64 %24
  store ptr %25, ptr %5, align 8
  %26 = load ptr, ptr %5, align 8
  %27 = getelementptr inbounds nuw %struct.deal, ptr %26, i32 0, i32 0
  %28 = load i32, ptr %27, align 4
  store i32 %28, ptr %8, align 4
  %29 = load ptr, ptr %5, align 8
  %30 = getelementptr inbounds nuw %struct.deal, ptr %29, i32 0, i32 4
  %31 = getelementptr inbounds [4 x [4 x i32]], ptr %30, i64 0, i64 0
  %32 = getelementptr inbounds [4 x i32], ptr %31, i64 0, i64 0
  %33 = load i32, ptr %32, align 4
  %34 = load ptr, ptr %5, align 8
  %35 = getelementptr inbounds nuw %struct.deal, ptr %34, i32 0, i32 4
  %36 = getelementptr inbounds [4 x [4 x i32]], ptr %35, i64 0, i64 1
  %37 = getelementptr inbounds [4 x i32], ptr %36, i64 0, i64 1
  %38 = load i32, ptr %37, align 4
  %39 = xor i32 %33, %38
  %40 = load ptr, ptr %5, align 8
  %41 = getelementptr inbounds nuw %struct.deal, ptr %40, i32 0, i32 4
  %42 = getelementptr inbounds [4 x [4 x i32]], ptr %41, i64 0, i64 2
  %43 = getelementptr inbounds [4 x i32], ptr %42, i64 0, i64 2
  %44 = load i32, ptr %43, align 4
  %45 = xor i32 %39, %44
  %46 = load ptr, ptr %5, align 8
  %47 = getelementptr inbounds nuw %struct.deal, ptr %46, i32 0, i32 4
  %48 = getelementptr inbounds [4 x [4 x i32]], ptr %47, i64 0, i64 3
  %49 = getelementptr inbounds [4 x i32], ptr %48, i64 0, i64 3
  %50 = load i32, ptr %49, align 4
  %51 = xor i32 %45, %50
  store i32 %51, ptr %9, align 4
  %52 = load i32, ptr %9, align 4
  %53 = lshr i32 %52, 2
  %54 = load i32, ptr %9, align 4
  %55 = lshr i32 %54, 6
  %56 = xor i32 %53, %55
  %57 = and i32 %56, 127
  store i32 %57, ptr %10, align 4
  %58 = load ptr, ptr %5, align 8
  %59 = getelementptr inbounds nuw %struct.deal, ptr %58, i32 0, i32 4
  %60 = getelementptr inbounds [4 x [4 x i32]], ptr %59, i64 0, i64 1
  %61 = getelementptr inbounds [4 x i32], ptr %60, i64 0, i64 0
  %62 = load i32, ptr %61, align 4
  %63 = shl i32 %62, 17
  %64 = load ptr, ptr %5, align 8
  %65 = getelementptr inbounds nuw %struct.deal, ptr %64, i32 0, i32 4
  %66 = getelementptr inbounds [4 x [4 x i32]], ptr %65, i64 0, i64 2
  %67 = getelementptr inbounds [4 x i32], ptr %66, i64 0, i64 1
  %68 = load i32, ptr %67, align 4
  %69 = shl i32 %68, 11
  %70 = xor i32 %63, %69
  %71 = load ptr, ptr %5, align 8
  %72 = getelementptr inbounds nuw %struct.deal, ptr %71, i32 0, i32 4
  %73 = getelementptr inbounds [4 x [4 x i32]], ptr %72, i64 0, i64 3
  %74 = getelementptr inbounds [4 x i32], ptr %73, i64 0, i64 2
  %75 = load i32, ptr %74, align 4
  %76 = shl i32 %75, 5
  %77 = xor i32 %70, %76
  %78 = load ptr, ptr %5, align 8
  %79 = getelementptr inbounds nuw %struct.deal, ptr %78, i32 0, i32 4
  %80 = getelementptr inbounds [4 x [4 x i32]], ptr %79, i64 0, i64 0
  %81 = getelementptr inbounds [4 x i32], ptr %80, i64 0, i64 3
  %82 = load i32, ptr %81, align 4
  %83 = lshr i32 %82, 2
  %84 = xor i32 %77, %83
  %85 = getelementptr inbounds nuw %class.Scheduler, ptr %14, i32 0, i32 0
  %86 = load i32, ptr %7, align 4
  %87 = sext i32 %86 to i64
  %88 = getelementptr inbounds [200 x %"struct.Scheduler::handType"], ptr %85, i64 0, i64 %87
  %89 = getelementptr inbounds nuw %"struct.Scheduler::handType", ptr %88, i32 0, i32 1
  store i32 %84, ptr %89, align 4
  store i32 0, ptr %11, align 4
  br label %90

90:                                               ; preds = %122, %20
  %91 = load i32, ptr %11, align 4
  %92 = icmp slt i32 %91, 4
  br i1 %92, label %93, label %125

93:                                               ; preds = %90
  store i32 0, ptr %12, align 4
  br label %94

94:                                               ; preds = %118, %93
  %95 = load i32, ptr %12, align 4
  %96 = icmp slt i32 %95, 4
  br i1 %96, label %97, label %121

97:                                               ; preds = %94
  %98 = load ptr, ptr %5, align 8
  %99 = getelementptr inbounds nuw %struct.deal, ptr %98, i32 0, i32 4
  %100 = load i32, ptr %11, align 4
  %101 = sext i32 %100 to i64
  %102 = getelementptr inbounds [4 x [4 x i32]], ptr %99, i64 0, i64 %101
  %103 = load i32, ptr %12, align 4
  %104 = sext i32 %103 to i64
  %105 = getelementptr inbounds [4 x i32], ptr %102, i64 0, i64 %104
  %106 = load i32, ptr %105, align 4
  %107 = getelementptr inbounds nuw %class.Scheduler, ptr %14, i32 0, i32 0
  %108 = load i32, ptr %7, align 4
  %109 = sext i32 %108 to i64
  %110 = getelementptr inbounds [200 x %"struct.Scheduler::handType"], ptr %107, i64 0, i64 %109
  %111 = getelementptr inbounds nuw %"struct.Scheduler::handType", ptr %110, i32 0, i32 2
  %112 = load i32, ptr %11, align 4
  %113 = sext i32 %112 to i64
  %114 = getelementptr inbounds [4 x [4 x i32]], ptr %111, i64 0, i64 %113
  %115 = load i32, ptr %12, align 4
  %116 = sext i32 %115 to i64
  %117 = getelementptr inbounds [4 x i32], ptr %114, i64 0, i64 %116
  store i32 %106, ptr %117, align 4
  br label %118

118:                                              ; preds = %97
  %119 = load i32, ptr %12, align 4
  %120 = add nsw i32 %119, 1
  store i32 %120, ptr %12, align 4
  br label %94, !llvm.loop !11

121:                                              ; preds = %94
  br label %122

122:                                              ; preds = %121
  %123 = load i32, ptr %11, align 4
  %124 = add nsw i32 %123, 1
  store i32 %124, ptr %11, align 4
  br label %90, !llvm.loop !12

125:                                              ; preds = %90
  %126 = load i32, ptr %8, align 4
  %127 = icmp eq i32 %126, 4
  %128 = select i1 %127, i32 1, i32 0
  %129 = getelementptr inbounds nuw %class.Scheduler, ptr %14, i32 0, i32 0
  %130 = load i32, ptr %7, align 4
  %131 = sext i32 %130 to i64
  %132 = getelementptr inbounds [200 x %"struct.Scheduler::handType"], ptr %129, i64 0, i64 %131
  %133 = getelementptr inbounds nuw %"struct.Scheduler::handType", ptr %132, i32 0, i32 3
  store i32 %128, ptr %133, align 8
  %134 = load ptr, ptr %5, align 8
  %135 = getelementptr inbounds nuw %struct.deal, ptr %134, i32 0, i32 1
  %136 = load i32, ptr %135, align 4
  %137 = getelementptr inbounds nuw %class.Scheduler, ptr %14, i32 0, i32 0
  %138 = load i32, ptr %7, align 4
  %139 = sext i32 %138 to i64
  %140 = getelementptr inbounds [200 x %"struct.Scheduler::handType"], ptr %137, i64 0, i64 %139
  %141 = getelementptr inbounds nuw %"struct.Scheduler::handType", ptr %140, i32 0, i32 4
  store i32 %136, ptr %141, align 4
  %142 = load i32, ptr %8, align 4
  %143 = getelementptr inbounds nuw %class.Scheduler, ptr %14, i32 0, i32 0
  %144 = load i32, ptr %7, align 4
  %145 = sext i32 %144 to i64
  %146 = getelementptr inbounds [200 x %"struct.Scheduler::handType"], ptr %143, i64 0, i64 %145
  %147 = getelementptr inbounds nuw %"struct.Scheduler::handType", ptr %146, i32 0, i32 5
  store i32 %142, ptr %147, align 8
  %148 = load ptr, ptr %5, align 8
  %149 = call noundef i32 @_ZNK9Scheduler6FanoutERK4deal(ptr noundef nonnull align 8 dereferenceable(43416) %14, ptr noundef nonnull align 4 dereferenceable(96) %148)
  %150 = getelementptr inbounds nuw %class.Scheduler, ptr %14, i32 0, i32 0
  %151 = load i32, ptr %7, align 4
  %152 = sext i32 %151 to i64
  %153 = getelementptr inbounds [200 x %"struct.Scheduler::handType"], ptr %150, i64 0, i64 %152
  %154 = getelementptr inbounds nuw %"struct.Scheduler::handType", ptr %153, i32 0, i32 9
  store i32 %149, ptr %154, align 8
  %155 = getelementptr inbounds nuw %class.Scheduler, ptr %14, i32 0, i32 5
  %156 = load i32, ptr %8, align 4
  %157 = sext i32 %156 to i64
  %158 = getelementptr inbounds [6 x [200 x %"struct.Scheduler::listType"]], ptr %155, i64 0, i64 %157
  %159 = load i32, ptr %10, align 4
  %160 = sext i32 %159 to i64
  %161 = getelementptr inbounds [200 x %"struct.Scheduler::listType"], ptr %158, i64 0, i64 %160
  store ptr %161, ptr %6, align 8
  %162 = load ptr, ptr %6, align 8
  %163 = getelementptr inbounds nuw %"struct.Scheduler::listType", ptr %162, i32 0, i32 0
  %164 = load i32, ptr %163, align 4
  %165 = icmp eq i32 %164, -1
  br i1 %165, label %166, label %192

166:                                              ; preds = %125
  %167 = load i32, ptr %7, align 4
  %168 = load ptr, ptr %6, align 8
  %169 = getelementptr inbounds nuw %"struct.Scheduler::listType", ptr %168, i32 0, i32 0
  store i32 %167, ptr %169, align 4
  %170 = load i32, ptr %7, align 4
  %171 = load ptr, ptr %6, align 8
  %172 = getelementptr inbounds nuw %"struct.Scheduler::listType", ptr %171, i32 0, i32 1
  store i32 %170, ptr %172, align 4
  %173 = load ptr, ptr %6, align 8
  %174 = getelementptr inbounds nuw %"struct.Scheduler::listType", ptr %173, i32 0, i32 2
  store i32 1, ptr %174, align 4
  %175 = load i32, ptr %8, align 4
  %176 = getelementptr inbounds nuw %class.Scheduler, ptr %14, i32 0, i32 1
  %177 = getelementptr inbounds nuw %class.Scheduler, ptr %14, i32 0, i32 2
  %178 = load i32, ptr %177, align 8
  %179 = sext i32 %178 to i64
  %180 = getelementptr inbounds [200 x %"struct.Scheduler::groupType"], ptr %176, i64 0, i64 %179
  %181 = getelementptr inbounds nuw %"struct.Scheduler::groupType", ptr %180, i32 0, i32 0
  store i32 %175, ptr %181, align 8
  %182 = load i32, ptr %10, align 4
  %183 = getelementptr inbounds nuw %class.Scheduler, ptr %14, i32 0, i32 1
  %184 = getelementptr inbounds nuw %class.Scheduler, ptr %14, i32 0, i32 2
  %185 = load i32, ptr %184, align 8
  %186 = sext i32 %185 to i64
  %187 = getelementptr inbounds [200 x %"struct.Scheduler::groupType"], ptr %183, i64 0, i64 %186
  %188 = getelementptr inbounds nuw %"struct.Scheduler::groupType", ptr %187, i32 0, i32 1
  store i32 %182, ptr %188, align 4
  %189 = getelementptr inbounds nuw %class.Scheduler, ptr %14, i32 0, i32 2
  %190 = load i32, ptr %189, align 8
  %191 = add nsw i32 %190, 1
  store i32 %191, ptr %189, align 8
  br label %209

192:                                              ; preds = %125
  %193 = load ptr, ptr %6, align 8
  %194 = getelementptr inbounds nuw %"struct.Scheduler::listType", ptr %193, i32 0, i32 1
  %195 = load i32, ptr %194, align 4
  store i32 %195, ptr %13, align 4
  %196 = load i32, ptr %7, align 4
  %197 = getelementptr inbounds nuw %class.Scheduler, ptr %14, i32 0, i32 0
  %198 = load i32, ptr %13, align 4
  %199 = sext i32 %198 to i64
  %200 = getelementptr inbounds [200 x %"struct.Scheduler::handType"], ptr %197, i64 0, i64 %199
  %201 = getelementptr inbounds nuw %"struct.Scheduler::handType", ptr %200, i32 0, i32 0
  store i32 %196, ptr %201, align 8
  %202 = load i32, ptr %7, align 4
  %203 = load ptr, ptr %6, align 8
  %204 = getelementptr inbounds nuw %"struct.Scheduler::listType", ptr %203, i32 0, i32 1
  store i32 %202, ptr %204, align 4
  %205 = load ptr, ptr %6, align 8
  %206 = getelementptr inbounds nuw %"struct.Scheduler::listType", ptr %205, i32 0, i32 2
  %207 = load i32, ptr %206, align 4
  %208 = add nsw i32 %207, 1
  store i32 %208, ptr %206, align 4
  br label %209

209:                                              ; preds = %192, %166
  br label %210

210:                                              ; preds = %209
  %211 = load i32, ptr %7, align 4
  %212 = add nsw i32 %211, 1
  store i32 %212, ptr %7, align 4
  br label %15, !llvm.loop !13

213:                                              ; preds = %15
  ret void
}