; Function Attrs: mustprogress nofree norecurse nosync nounwind memory(read, argmem: readwrite, inaccessiblemem: none) uwtable
define void @_ZN9Scheduler10MakeGroupsERK6boards(ptr nocapture noundef nonnull align 8 dereferenceable(43416) %0, ptr nocapture noundef nonnull readonly align 4 dereferenceable(21604) %1) local_unnamed_addr #7 align 2 {
  %3 = getelementptr inbounds nuw i8, ptr %0, i64 43292
  %4 = load i32, ptr %3, align 4
  %5 = icmp sgt i32 %4, 0
  br i1 %5, label %.lr.ph, label %._crit_edge

.lr.ph:                                           ; preds = %2
  %6 = getelementptr inbounds nuw i8, ptr %1, i64 4
  %7 = getelementptr inbounds nuw i8, ptr %0, i64 27212
  %8 = getelementptr inbounds nuw i8, ptr %0, i64 22400
  %9 = getelementptr inbounds nuw i8, ptr %0, i64 27200
  br label %10

10:                                               ; preds = %.lr.ph, %100
  %indvars.iv65 = phi i64 [ 0, %.lr.ph ], [ %indvars.iv.next66, %100 ]
  %11 = getelementptr inbounds [200 x %struct.deal], ptr %6, i64 0, i64 %indvars.iv65
  %12 = load i32, ptr %11, align 4
  %13 = getelementptr inbounds nuw i8, ptr %11, i64 32
  %14 = load i32, ptr %13, align 4
  %15 = getelementptr inbounds i8, ptr %11, i64 48
  %16 = getelementptr inbounds i8, ptr %11, i64 52
  %17 = load i32, ptr %16, align 4
  %18 = xor i32 %17, %14
  %19 = getelementptr inbounds i8, ptr %11, i64 72
  %20 = load i32, ptr %19, align 4
  %21 = xor i32 %18, %20
  %22 = getelementptr inbounds i8, ptr %11, i64 92
  %23 = load i32, ptr %22, align 4
  %24 = xor i32 %21, %23
  %25 = lshr i32 %24, 2
  %26 = lshr i32 %24, 6
  %27 = xor i32 %25, %26
  %28 = load i32, ptr %15, align 4
  %29 = shl i32 %28, 17
  %30 = getelementptr inbounds i8, ptr %11, i64 68
  %31 = load i32, ptr %30, align 4
  %32 = shl i32 %31, 11
  %33 = xor i32 %32, %29
  %34 = getelementptr inbounds i8, ptr %11, i64 88
  %35 = load i32, ptr %34, align 4
  %36 = shl i32 %35, 5
  %37 = xor i32 %33, %36
  %38 = getelementptr inbounds i8, ptr %11, i64 44
  %39 = load i32, ptr %38, align 4
  %40 = lshr i32 %39, 2
  %41 = xor i32 %37, %40
  %42 = getelementptr inbounds [200 x %"struct.Scheduler::handType"], ptr %0, i64 0, i64 %indvars.iv65
  %43 = getelementptr inbounds nuw i8, ptr %42, i64 4
  store i32 %41, ptr %43, align 4
  %44 = getelementptr inbounds nuw i8, ptr %42, i64 8
  br label %.preheader

.preheader:                                       ; preds = %10, %49
  %indvars.iv61 = phi i64 [ 0, %10 ], [ %indvars.iv.next62, %49 ]
  br label %45

45:                                               ; preds = %.preheader, %45
  %indvars.iv = phi i64 [ 0, %.preheader ], [ %indvars.iv.next, %45 ]
  %46 = getelementptr inbounds [4 x [4 x i32]], ptr %13, i64 0, i64 %indvars.iv61, i64 %indvars.iv
  %47 = load i32, ptr %46, align 4
  %48 = getelementptr inbounds [4 x [4 x i32]], ptr %44, i64 0, i64 %indvars.iv61, i64 %indvars.iv
  store i32 %47, ptr %48, align 4
  %indvars.iv.next = add nuw nsw i64 %indvars.iv, 1
  %exitcond.not = icmp eq i64 %indvars.iv.next, 4
  br i1 %exitcond.not, label %49, label %45, !llvm.loop !12

49:                                               ; preds = %45
  %indvars.iv.next62 = add nuw nsw i64 %indvars.iv61, 1
  %exitcond64.not = icmp eq i64 %indvars.iv.next62, 4
  br i1 %exitcond64.not, label %50, label %.preheader, !llvm.loop !13

50:                                               ; preds = %49
  %51 = icmp eq i32 %12, 4
  %52 = zext i1 %51 to i32
  %53 = getelementptr inbounds nuw i8, ptr %42, i64 72
  store i32 %52, ptr %53, align 8
  %54 = getelementptr inbounds nuw i8, ptr %11, i64 4
  %55 = load i32, ptr %54, align 4
  %56 = getelementptr inbounds nuw i8, ptr %42, i64 76
  store i32 %55, ptr %56, align 4
  %57 = getelementptr inbounds nuw i8, ptr %42, i64 80
  store i32 %12, ptr %57, align 8
  br label %.preheader.i

.preheader.i:                                     ; preds = %69, %50
  %indvars.iv27.i = phi i64 [ 0, %50 ], [ %indvars.iv.next28.i, %69 ]
  %.01723.i = phi i32 [ 0, %50 ], [ %72, %69 ]
  br label %58

58:                                               ; preds = %58, %.preheader.i
  %indvars.iv.i = phi i64 [ 0, %.preheader.i ], [ %indvars.iv.next.i, %58 ]
  %.01821.i = phi i32 [ 0, %.preheader.i ], [ %spec.select.i, %58 ]
  %.01920.i = phi i32 [ 0, %.preheader.i ], [ %66, %58 ]
  %59 = getelementptr inbounds [4 x [4 x i32]], ptr %13, i64 0, i64 %indvars.iv27.i, i64 %indvars.iv.i
  %60 = load i32, ptr %59, align 4
  %61 = lshr i32 %60, 2
  %62 = zext nneg i32 %61 to i64
  %63 = getelementptr inbounds [8192 x %struct.moveGroupType], ptr @groupData, i64 0, i64 %62
  %64 = load i32, ptr %63, align 4
  %65 = add i32 %.01920.i, 1
  %66 = add i32 %65, %64
  %67 = icmp ult i32 %60, 4
  %68 = zext i1 %67 to i32
  %spec.select.i = add nuw nsw i32 %.01821.i, %68
  %indvars.iv.next.i = add nuw nsw i64 %indvars.iv.i, 1
  %exitcond.not.i = icmp eq i64 %indvars.iv.next.i, 4
  br i1 %exitcond.not.i, label %69, label %58, !llvm.loop !14

69:                                               ; preds = %58
  %70 = add nuw i32 %spec.select.i, 1
  %71 = mul i32 %70, %66
  %72 = add nsw i32 %71, %.01723.i
  %indvars.iv.next28.i = add nuw nsw i64 %indvars.iv27.i, 1
  %exitcond30.not.i = icmp eq i64 %indvars.iv.next28.i, 4
  br i1 %exitcond30.not.i, label %_ZNK9Scheduler6FanoutERK4deal.exit, label %.preheader.i, !llvm.loop !15

_ZNK9Scheduler6FanoutERK4deal.exit:               ; preds = %69
  %73 = and i32 %27, 127
  %74 = getelementptr inbounds nuw i8, ptr %42, i64 96
  store i32 %72, ptr %74, align 8
  %75 = sext i32 %12 to i64
  %76 = zext nneg i32 %73 to i64
  %77 = getelementptr inbounds [6 x [200 x %"struct.Scheduler::listType"]], ptr %7, i64 0, i64 %75, i64 %76
  %78 = load i32, ptr %77, align 4
  %79 = icmp eq i32 %78, -1
  br i1 %79, label %80, label %91

80:                                               ; preds = %_ZNK9Scheduler6FanoutERK4deal.exit
  %81 = trunc nuw nsw i64 %indvars.iv65 to i32
  store i32 %81, ptr %77, align 4
  %82 = getelementptr inbounds nuw i8, ptr %77, i64 4
  store i32 %81, ptr %82, align 4
  %83 = getelementptr inbounds nuw i8, ptr %77, i64 8
  store i32 1, ptr %83, align 4
  %84 = load i32, ptr %9, align 8
  %85 = sext i32 %84 to i64
  %86 = getelementptr inbounds [200 x %"struct.Scheduler::groupType"], ptr %8, i64 0, i64 %85
  store i32 %12, ptr %86, align 8
  %87 = load i32, ptr %9, align 8
  %88 = sext i32 %87 to i64
  %89 = getelementptr inbounds [200 x %"struct.Scheduler::groupType"], ptr %8, i64 0, i64 %88, i32 1
  store i32 %73, ptr %89, align 4
  %90 = add nsw i32 %87, 1
  store i32 %90, ptr %9, align 8
  br label %100

91:                                               ; preds = %_ZNK9Scheduler6FanoutERK4deal.exit
  %92 = getelementptr inbounds nuw i8, ptr %77, i64 4
  %93 = load i32, ptr %92, align 4
  %94 = sext i32 %93 to i64
  %95 = getelementptr inbounds [200 x %"struct.Scheduler::handType"], ptr %0, i64 0, i64 %94
  %96 = trunc nuw nsw i64 %indvars.iv65 to i32
  store i32 %96, ptr %95, align 8
  store i32 %96, ptr %92, align 4
  %97 = getelementptr inbounds nuw i8, ptr %77, i64 8
  %98 = load i32, ptr %97, align 4
  %99 = add nsw i32 %98, 1
  store i32 %99, ptr %97, align 4
  br label %100

100:                                              ; preds = %80, %91
  %indvars.iv.next66 = add nuw nsw i64 %indvars.iv65, 1
  %101 = load i32, ptr %3, align 4
  %102 = sext i32 %101 to i64
  %103 = icmp slt i64 %indvars.iv.next66, %102
  br i1 %103, label %10, label %._crit_edge, !llvm.loop !16

._crit_edge:                                      ; preds = %100, %2
  ret void
}